; Function Attrs: mustprogress uwtable
define dso_local void @_ZNK10Expression11output_castERSo(ptr noundef nonnull readonly align 8 captures(none) dereferenceable(24) %0, ptr noundef nonnull align 8 dereferenceable(8) %1) local_unnamed_addr #4 align 2 {
  %3 = tail call noundef zeroext i1 @_ZN9CGOptions5ccompEv()
  br i1 %3, label %6, label %4

4:                                                ; preds = %2
  %5 = tail call noundef zeroext i1 @_ZN9CGOptions8lang_cppEv()
  br i1 %5, label %6, label %13

6:                                                ; preds = %4, %2
  %7 = getelementptr inbounds nuw i8, ptr %0, i64 16
  %8 = load ptr, ptr %7, align 8, !tbaa !108
  %.not = icmp eq ptr %8, null
  br i1 %.not, label %13, label %9

9:                                                ; preds = %6
  %10 = tail call noundef nonnull align 8 dereferenceable(8) ptr @_ZSt16__ostream_insertIcSt11char_traitsIcEERSt13basic_ostreamIT_T0_ES6_PKS3_l(ptr noundef nonnull align 8 dereferenceable(8) %1, ptr noundef nonnull @.str, i64 noundef 1)
  %11 = load ptr, ptr %7, align 8, !tbaa !108
  tail call void @_ZNK4Type6OutputERSo(ptr noundef nonnull align 8 dereferenceable(136) %11, ptr noundef nonnull align 8 dereferenceable(8) %1)
  %12 = tail call noundef nonnull align 8 dereferenceable(8) ptr @_ZSt16__ostream_insertIcSt11char_traitsIcEERSt13basic_ostreamIT_T0_ES6_PKS3_l(ptr noundef nonnull align 8 dereferenceable(8) %1, ptr noundef nonnull @.str.3, i64 noundef 2)
  br label %13

13:                                               ; preds = %9, %6, %4
  ret void
}